target datalayout = "e-m:e-p270:32:32-p271:32:32-p272:64:64-i64:64-i128:128-f80:128-n8:16:32:64-S128"
target triple = "x86_64-pc-linux-gnu"

%struct.TokenAuxData = type { %union.YYSTYPE, i32, i32 }
%union.YYSTYPE = type { %struct.PLwdatum }
%struct.PLwdatum = type { ptr, ptr, i8, ptr }
%struct.yyguts_t = type { ptr }
%struct.plpgsql_yy_extra_type = type { %struct.core_yy_extra_type, ptr, i32, i32, i32, [4 x i32], [4 x %struct.TokenAuxData], ptr, ptr, i32 }
%struct.core_yy_extra_type = type { ptr, i64, ptr, ptr, i32, i8, i8, ptr, i32, i32, i32, i32, ptr, i32, i32, i8, i8 }

@.str = private unnamed_addr constant [11 x i8] c"plpgsql-18\00", align 1
@.str.1 = private unnamed_addr constant [19 x i8] c"%s at end of input\00", align 1
@.str.2 = private unnamed_addr constant [13 x i8] c"pl_scanner.c\00", align 1
@__func__.plpgsql_yyerror = private unnamed_addr constant [16 x i8] c"plpgsql_yyerror\00", align 1
@.str.3 = private unnamed_addr constant [19 x i8] c"%s at or near \22%s\22\00", align 1

; Function Attrs: noreturn nounwind uwtable
define hidden void @plpgsql_yyerror(ptr noundef %0, ptr noundef %1, ptr noundef %2, ptr noundef %3) #5 {
  %5 = alloca ptr, align 8
  %6 = alloca ptr, align 8
  %7 = alloca ptr, align 8
  %8 = alloca ptr, align 8
  %9 = alloca ptr, align 8
  store ptr %0, ptr %5, align 8
  store ptr %1, ptr %6, align 8
  store ptr %2, ptr %7, align 8
  store ptr %3, ptr %8, align 8
  call void @llvm.lifetime.start.p0(i64 8, ptr %9) #8
  %10 = load ptr, ptr %7, align 8
  %11 = getelementptr inbounds nuw %struct.yyguts_t, ptr %10, i32 0, i32 0
  %12 = load ptr, ptr %11, align 8
  %13 = getelementptr inbounds nuw %struct.plpgsql_yy_extra_type, ptr %12, i32 0, i32 0
  %14 = getelementptr inbounds nuw %struct.core_yy_extra_type, ptr %13, i32 0, i32 0
  %15 = load ptr, ptr %14, align 8
  %16 = load ptr, ptr %5, align 8
  %17 = load i32, ptr %16, align 4
  %18 = sext i32 %17 to i64
  %19 = getelementptr inbounds i8, ptr %15, i64 %18
  store ptr %19, ptr %9, align 8
  %20 = load ptr, ptr %9, align 8
  %21 = load i8, ptr %20, align 1
  %22 = sext i8 %21 to i32
  %23 = icmp eq i32 %22, 0
  br i1 %23, label %24, label %41

24:                                               ; preds = %4
  br label %25

25:                                               ; preds = %24
  br i1 true, label %26, label %28

26:                                               ; preds = %25
  %27 = call zeroext i1 @errstart_cold(i32 noundef 21, ptr noundef @.str) #10
  br i1 %27, label %30, label %38

28:                                               ; preds = %25
  %29 = call zeroext i1 @errstart(i32 noundef 21, ptr noundef @.str)
  br i1 %29, label %30, label %38

30:                                               ; preds = %28, %26
  %31 = call i32 @errcode(i32 noundef 16801924)
  %32 = load ptr, ptr %8, align 8
  %33 = call i32 (ptr, ...) @errmsg(ptr noundef @.str.1, ptr noundef %32)
  %34 = load ptr, ptr %5, align 8
  %35 = load i32, ptr %34, align 4
  %36 = load ptr, ptr %7, align 8
  %37 = call i32 @plpgsql_scanner_errposition(i32 noundef %35, ptr noundef %36)
  call void @errfinish(ptr noundef @.str.2, i32 noundef 544, ptr noundef @__func__.plpgsql_yyerror)
  br label %38

38:                                               ; preds = %30, %28, %26
  unreachable

39:                                               ; No predecessors!
  br label %40

40:                                               ; preds = %39
  br label %67

41:                                               ; preds = %4
  %42 = load ptr, ptr %9, align 8
  %43 = load ptr, ptr %7, align 8
  %44 = getelementptr inbounds nuw %struct.yyguts_t, ptr %43, i32 0, i32 0
  %45 = load ptr, ptr %44, align 8
  %46 = getelementptr inbounds nuw %struct.plpgsql_yy_extra_type, ptr %45, i32 0, i32 2
  %47 = load i32, ptr %46, align 8
  %48 = sext i32 %47 to i64
  %49 = getelementptr inbounds i8, ptr %42, i64 %48
  store i8 0, ptr %49, align 1
  br label %50

50:                                               ; preds = %41
  br i1 true, label %51, label %53

51:                                               ; preds = %50
  %52 = call zeroext i1 @errstart_cold(i32 noundef 21, ptr noundef @.str) #10
  br i1 %52, label %55, label %64

53:                                               ; preds = %50
  %54 = call zeroext i1 @errstart(i32 noundef 21, ptr noundef @.str)
  br i1 %54, label %55, label %64

55:                                               ; preds = %53, %51
  %56 = call i32 @errcode(i32 noundef 16801924)
  %57 = load ptr, ptr %8, align 8
  %58 = load ptr, ptr %9, align 8
  %59 = call i32 (ptr, ...) @errmsg(ptr noundef @.str.3, ptr noundef %57, ptr noundef %58)
  %60 = load ptr, ptr %5, align 8
  %61 = load i32, ptr %60, align 4
  %62 = load ptr, ptr %7, align 8
  %63 = call i32 @plpgsql_scanner_errposition(i32 noundef %61, ptr noundef %62)
  call void @errfinish(ptr noundef @.str.2, i32 noundef 560, ptr noundef @__func__.plpgsql_yyerror)
  br label %64

64:                                               ; preds = %55, %53, %51
  unreachable

65:                                               ; No predecessors!
  br label %66

66:                                               ; preds = %65
  br label %67

67:                                               ; preds = %66, %40
  call void @llvm.lifetime.end.p0(i64 8, ptr %9) #8
  unreachable
}