; Function Attrs: cold noreturn nounwind uwtable
define hidden void @plpgsql_yyerror(ptr noundef readonly captures(none) %0, ptr noundef readnone captures(none) %1, ptr noundef readonly captures(none) %2, ptr noundef %3) local_unnamed_addr #6 {
  %5 = load ptr, ptr %2, align 8
  %6 = load ptr, ptr %5, align 8
  %7 = load i32, ptr %0, align 4
  %8 = sext i32 %7 to i64
  %9 = getelementptr inbounds i8, ptr %6, i64 %8
  %10 = load i8, ptr %9, align 1
  %11 = icmp eq i8 %10, 0
  br i1 %11, label %12, label %18

12:                                               ; preds = %4
  %13 = tail call zeroext i1 @errstart_cold(i32 noundef 21, ptr noundef nonnull @.str) #13
  tail call void @llvm.assume(i1 %13)
  %14 = tail call i32 @errcode(i32 noundef 16801924) #12
  %15 = tail call i32 (ptr, ...) @errmsg(ptr noundef nonnull @.str.1, ptr noundef %3) #12
  %16 = load i32, ptr %0, align 4
  %17 = tail call i32 @plpgsql_scanner_errposition(i32 noundef %16, ptr noundef nonnull %2)
  tail call void @errfinish(ptr noundef nonnull @.str.2, i32 noundef 544, ptr noundef nonnull @__func__.plpgsql_yyerror) #12
  unreachable

18:                                               ; preds = %4
  %19 = getelementptr inbounds nuw i8, ptr %5, i64 96
  %20 = load i32, ptr %19, align 8
  %21 = sext i32 %20 to i64
  %22 = getelementptr inbounds i8, ptr %9, i64 %21
  store i8 0, ptr %22, align 1
  %23 = tail call zeroext i1 @errstart_cold(i32 noundef 21, ptr noundef nonnull @.str) #13
  tail call void @llvm.assume(i1 %23)
  %24 = tail call i32 @errcode(i32 noundef 16801924) #12
  %25 = tail call i32 (ptr, ...) @errmsg(ptr noundef nonnull @.str.3, ptr noundef %3, ptr noundef nonnull %9) #12
  %26 = load i32, ptr %0, align 4
  %27 = tail call i32 @plpgsql_scanner_errposition(i32 noundef %26, ptr noundef nonnull %2)
  tail call void @errfinish(ptr noundef nonnull @.str.2, i32 noundef 560, ptr noundef nonnull @__func__.plpgsql_yyerror) #12
  unreachable
}